; ModuleID = '47/1118.cpp'
source_filename = "47/1118.cpp"
target datalayout = "e-m:e-p270:32:32-p271:32:32-p272:64:64-i64:64-f80:128-n8:16:32:64-S128"
target triple = "x86_64-pc-linux-gnu"

%"class.std::ios_base::Init" = type { i8 }
%"class.std::basic_istream" = type { i32 (...)**, i64, %"class.std::basic_ios" }
%"class.std::basic_ios" = type { %"class.std::ios_base", %"class.std::basic_ostream"*, i8, i8, %"class.std::basic_streambuf"*, %"class.std::ctype"*, %"class.std::num_put"*, %"class.std::num_get"* }
%"class.std::ios_base" = type { i32 (...)**, i64, i64, i32, i32, i32, %"struct.std::ios_base::_Callback_list"*, %"struct.std::ios_base::_Words", [8 x %"struct.std::ios_base::_Words"], i32, %"struct.std::ios_base::_Words"*, %"class.std::locale" }
%"struct.std::ios_base::_Callback_list" = type { %"struct.std::ios_base::_Callback_list"*, void (i32, %"class.std::ios_base"*, i32)*, i32, i32 }
%"struct.std::ios_base::_Words" = type { i8*, i64 }
%"class.std::locale" = type { %"class.std::locale::_Impl"* }
%"class.std::locale::_Impl" = type { i32, %"class.std::locale::facet"**, i64, %"class.std::locale::facet"**, i8** }
%"class.std::locale::facet" = type <{ i32 (...)**, i32, [4 x i8] }>
%"class.std::basic_ostream" = type { i32 (...)**, %"class.std::basic_ios" }
%"class.std::basic_streambuf" = type { i32 (...)**, i8*, i8*, i8*, i8*, i8*, i8*, %"class.std::locale" }
%"class.std::ctype" = type <{ %"class.std::locale::facet.base", [4 x i8], %struct.__locale_struct*, i8, [7 x i8], i32*, i32*, i16*, i8, [256 x i8], [256 x i8], i8, [6 x i8] }>
%"class.std::locale::facet.base" = type <{ i32 (...)**, i32 }>
%struct.__locale_struct = type { [13 x %struct.__locale_data*], i16*, i32*, i32*, [13 x i8*] }
%struct.__locale_data = type opaque
%"class.std::num_put" = type { %"class.std::locale::facet.base", [4 x i8] }
%"class.std::num_get" = type { %"class.std::locale::facet.base", [4 x i8] }

@_ZStL8__ioinit = internal global %"class.std::ios_base::Init" zeroinitializer, align 1
@__dso_handle = external hidden global i8
@_ZSt3cin = external dso_local global %"class.std::basic_istream", align 8
@_ZSt4cout = external dso_local global %"class.std::basic_ostream", align 8
@.str = private unnamed_addr constant [2 x i8] c" \00", align 1
@llvm.global_ctors = appending global [1 x { i32, void ()*, i8* }] [{ i32, void ()*, i8* } { i32 65535, void ()* @_GLOBAL__sub_I_1118.cpp, i8* null }]

; Function Attrs: noinline uwtable
define internal void @__cxx_global_var_init() #0 section ".text.startup" {
  call void @_ZNSt8ios_base4InitC1Ev(%"class.std::ios_base::Init"* @_ZStL8__ioinit)
  %1 = call i32 @__cxa_atexit(void (i8*)* bitcast (void (%"class.std::ios_base::Init"*)* @_ZNSt8ios_base4InitD1Ev to void (i8*)*), i8* getelementptr inbounds (%"class.std::ios_base::Init", %"class.std::ios_base::Init"* @_ZStL8__ioinit, i32 0, i32 0), i8* @__dso_handle) #3
  ret void
}

declare dso_local void @_ZNSt8ios_base4InitC1Ev(%"class.std::ios_base::Init"*) unnamed_addr #1

; Function Attrs: nounwind
declare dso_local void @_ZNSt8ios_base4InitD1Ev(%"class.std::ios_base::Init"*) unnamed_addr #2

; Function Attrs: nounwind
declare dso_local i32 @__cxa_atexit(void (i8*)*, i8*, i8*) #3

; Function Attrs: noinline norecurse uwtable
define dso_local i32 @main() #4 {
  %1 = alloca i32, align 4
  %2 = alloca i32, align 4
  %3 = alloca i32, align 4
  %4 = alloca i32, align 4
  %5 = alloca i32, align 4
  %6 = alloca i32, align 4
  %7 = alloca [101 x i32], align 16
  store i32 0, i32* %1, align 4
  %8 = call dereferenceable(280) %"class.std::basic_istream"* @_ZNSirsERi(%"class.std::basic_istream"* @_ZSt3cin, i32* dereferenceable(4) %2)
  store i32 1, i32* %3, align 4
  br label %9

9:                                                ; preds = %18, %0
  %10 = load i32, i32* %3, align 4
  %11 = load i32, i32* %2, align 4
  %12 = icmp sle i32 %10, %11
  br i1 %12, label %13, label %21

13:                                               ; preds = %9
  %14 = load i32, i32* %3, align 4
  %15 = sext i32 %14 to i64
  %16 = getelementptr inbounds [101 x i32], [101 x i32]* %7, i64 0, i64 %15
  %17 = call dereferenceable(280) %"class.std::basic_istream"* @_ZNSirsERi(%"class.std::basic_istream"* @_ZSt3cin, i32* dereferenceable(4) %16)
  br label %18

18:                                               ; preds = %13
  %19 = load i32, i32* %3, align 4
  %20 = add nsw i32 %19, 1
  store i32 %20, i32* %3, align 4
  br label %9

21:                                               ; preds = %9
  %22 = load i32, i32* %2, align 4
  %23 = srem i32 %22, 2
  %24 = icmp eq i32 %23, 0
  br i1 %24, label %25, label %58

25:                                               ; preds = %21
  %26 = load i32, i32* %2, align 4
  %27 = sdiv i32 %26, 2
  store i32 %27, i32* %5, align 4
  store i32 1, i32* %3, align 4
  br label %28

28:                                               ; preds = %54, %25
  %29 = load i32, i32* %3, align 4
  %30 = load i32, i32* %5, align 4
  %31 = icmp sle i32 %29, %30
  br i1 %31, label %32, label %57

32:                                               ; preds = %28
  %33 = load i32, i32* %2, align 4
  %34 = add nsw i32 %33, 1
  %35 = load i32, i32* %3, align 4
  %36 = sub nsw i32 %34, %35
  %37 = sext i32 %36 to i64
  %38 = getelementptr inbounds [101 x i32], [101 x i32]* %7, i64 0, i64 %37
  %39 = load i32, i32* %38, align 4
  store i32 %39, i32* %6, align 4
  %40 = load i32, i32* %3, align 4
  %41 = sext i32 %40 to i64
  %42 = getelementptr inbounds [101 x i32], [101 x i32]* %7, i64 0, i64 %41
  %43 = load i32, i32* %42, align 4
  %44 = load i32, i32* %2, align 4
  %45 = add nsw i32 %44, 1
  %46 = load i32, i32* %3, align 4
  %47 = sub nsw i32 %45, %46
  %48 = sext i32 %47 to i64
  %49 = getelementptr inbounds [101 x i32], [101 x i32]* %7, i64 0, i64 %48
  store i32 %43, i32* %49, align 4
  %50 = load i32, i32* %6, align 4
  %51 = load i32, i32* %3, align 4
  %52 = sext i32 %51 to i64
  %53 = getelementptr inbounds [101 x i32], [101 x i32]* %7, i64 0, i64 %52
  store i32 %50, i32* %53, align 4
  br label %54

54:                                               ; preds = %32
  %55 = load i32, i32* %3, align 4
  %56 = add nsw i32 %55, 1
  store i32 %56, i32* %3, align 4
  br label %28

57:                                               ; preds = %28
  br label %97

58:                                               ; preds = %21
  %59 = load i32, i32* %2, align 4
  %60 = srem i32 %59, 2
  %61 = icmp ne i32 %60, 0
  br i1 %61, label %62, label %96

62:                                               ; preds = %58
  %63 = load i32, i32* %2, align 4
  %64 = sub nsw i32 %63, 1
  %65 = sdiv i32 %64, 2
  store i32 %65, i32* %5, align 4
  store i32 1, i32* %3, align 4
  br label %66

66:                                               ; preds = %92, %62
  %67 = load i32, i32* %3, align 4
  %68 = load i32, i32* %5, align 4
  %69 = icmp sle i32 %67, %68
  br i1 %69, label %70, label %95

70:                                               ; preds = %66
  %71 = load i32, i32* %2, align 4
  %72 = add nsw i32 %71, 1
  %73 = load i32, i32* %3, align 4
  %74 = sub nsw i32 %72, %73
  %75 = sext i32 %74 to i64
  %76 = getelementptr inbounds [101 x i32], [101 x i32]* %7, i64 0, i64 %75
  %77 = load i32, i32* %76, align 4
  store i32 %77, i32* %6, align 4
  %78 = load i32, i32* %3, align 4
  %79 = sext i32 %78 to i64
  %80 = getelementptr inbounds [101 x i32], [101 x i32]* %7, i64 0, i64 %79
  %81 = load i32, i32* %80, align 4
  %82 = load i32, i32* %2, align 4
  %83 = add nsw i32 %82, 1
  %84 = load i32, i32* %3, align 4
  %85 = sub nsw i32 %83, %84
  %86 = sext i32 %85 to i64
  %87 = getelementptr inbounds [101 x i32], [101 x i32]* %7, i64 0, i64 %86
  store i32 %81, i32* %87, align 4
  %88 = load i32, i32* %6, align 4
  %89 = load i32, i32* %3, align 4
  %90 = sext i32 %89 to i64
  %91 = getelementptr inbounds [101 x i32], [101 x i32]* %7, i64 0, i64 %90
  store i32 %88, i32* %91, align 4
  br label %92

92:                                               ; preds = %70
  %93 = load i32, i32* %3, align 4
  %94 = add nsw i32 %93, 1
  store i32 %94, i32* %3, align 4
  br label %66

95:                                               ; preds = %66
  br label %96

96:                                               ; preds = %95, %58
  br label %97

97:                                               ; preds = %96, %57
  store i32 1, i32* %3, align 4
  br label %98

98:                                               ; preds = %110, %97
  %99 = load i32, i32* %3, align 4
  %100 = load i32, i32* %2, align 4
  %101 = sub nsw i32 %100, 1
  %102 = icmp sle i32 %99, %101
  br i1 %102, label %103, label %113

103:                                              ; preds = %98
  %104 = load i32, i32* %3, align 4
  %105 = sext i32 %104 to i64
  %106 = getelementptr inbounds [101 x i32], [101 x i32]* %7, i64 0, i64 %105
  %107 = load i32, i32* %106, align 4
  %108 = call dereferenceable(272) %"class.std::basic_ostream"* @_ZNSolsEi(%"class.std::basic_ostream"* @_ZSt4cout, i32 %107)
  %109 = call dereferenceable(272) %"class.std::basic_ostream"* @_ZStlsISt11char_traitsIcEERSt13basic_ostreamIcT_ES5_PKc(%"class.std::basic_ostream"* dereferenceable(272) %108, i8* getelementptr inbounds ([2 x i8], [2 x i8]* @.str, i64 0, i64 0))
  br label %110

110:                                              ; preds = %103
  %111 = load i32, i32* %3, align 4
  %112 = add nsw i32 %111, 1
  store i32 %112, i32* %3, align 4
  br label %98

113:                                              ; preds = %98
  %114 = load i32, i32* %2, align 4
  %115 = sext i32 %114 to i64
  %116 = getelementptr inbounds [101 x i32], [101 x i32]* %7, i64 0, i64 %115
  %117 = load i32, i32* %116, align 4
  %118 = call dereferenceable(272) %"class.std::basic_ostream"* @_ZNSolsEi(%"class.std::basic_ostream"* @_ZSt4cout, i32 %117)
  ret i32 0
}

declare dso_local dereferenceable(280) %"class.std::basic_istream"* @_ZNSirsERi(%"class.std::basic_istream"*, i32* dereferenceable(4)) #1

declare dso_local dereferenceable(272) %"class.std::basic_ostream"* @_ZStlsISt11char_traitsIcEERSt13basic_ostreamIcT_ES5_PKc(%"class.std::basic_ostream"* dereferenceable(272), i8*) #1

declare dso_local dereferenceable(272) %"class.std::basic_ostream"* @_ZNSolsEi(%"class.std::basic_ostream"*, i32) #1

; Function Attrs: noinline uwtable
define internal void @_GLOBAL__sub_I_1118.cpp() #0 section ".text.startup" {
  call void @__cxx_global_var_init()
  ret void
}


!llvm.module.flags = !{!0}
!llvm.ident = !{!1}

!0 = !{i32 1, !"wchar_size", i32 4}
!1 = !{!"clang version 10.0.0-4ubuntu1 "}
