; ModuleID = 'source-C-CXX/46/1118.cpp'
source_filename = "source-C-CXX/46/1118.cpp"
target datalayout = "e-m:e-p270:32:32-p271:32:32-p272:64:64-i64:64-f80:128-n8:16:32:64-S128"
target triple = "x86_64-pc-linux-gnu"

%"class.std::ios_base::Init" = type { i8 }
%"class.std::basic_istream" = type { i32 (...)**, i64, %"class.std::basic_ios" }
%"class.std::basic_ios" = type { %"class.std::ios_base", %"class.std::basic_ostream"*, i8, i8, %"class.std::basic_streambuf"*, %"class.std::ctype"*, %"class.std::num_put"*, %"class.std::num_get"* }
%"class.std::ios_base" = type { i32 (...)**, i64, i64, i32, i32, i32, %"struct.std::ios_base::_Callback_list"*, %"struct.std::ios_base::_Words", [8 x %"struct.std::ios_base::_Words"], i32, %"struct.std::ios_base::_Words"*, %"class.std::locale" }
%"struct.std::ios_base::_Callback_list" = type { %"struct.std::ios_base::_Callback_list"*, void (i32, %"class.std::ios_base"*, i32)*, i32, i32 }
%"struct.std::ios_base::_Words" = type { i8*, i64 }
%"class.std::locale" = type { %"class.std::locale::_Impl"* }
%"class.std::locale::_Impl" = type { i32, %"class.std::locale::facet"**, i64, %"class.std::locale::facet"**, i8** }
%"class.std::locale::facet" = type <{ i32 (...)**, i32, [4 x i8] }>
%"class.std::basic_ostream" = type { i32 (...)**, %"class.std::basic_ios" }
%"class.std::basic_streambuf" = type { i32 (...)**, i8*, i8*, i8*, i8*, i8*, i8*, %"class.std::locale" }
%"class.std::ctype" = type <{ %"class.std::locale::facet.base", [4 x i8], %struct.__locale_struct*, i8, [7 x i8], i32*, i32*, i16*, i8, [256 x i8], [256 x i8], i8, [6 x i8] }>
%"class.std::locale::facet.base" = type <{ i32 (...)**, i32 }>
%struct.__locale_struct = type { [13 x %struct.__locale_data*], i16*, i32*, i32*, [13 x i8*] }
%struct.__locale_data = type opaque
%"class.std::num_put" = type { %"class.std::locale::facet.base", [4 x i8] }
%"class.std::num_get" = type { %"class.std::locale::facet.base", [4 x i8] }

@_ZStL8__ioinit = internal global %"class.std::ios_base::Init" zeroinitializer, align 1
@__dso_handle = external hidden global i8
@_ZSt3cin = external global %"class.std::basic_istream", align 8
@_ZSt4cout = external global %"class.std::basic_ostream", align 8
@.str = private unnamed_addr constant [2 x i8] c" \00", align 1
@llvm.global_ctors = appending global [1 x { i32, void ()*, i8* }] [{ i32, void ()*, i8* } { i32 65535, void ()* @_GLOBAL__sub_I_1118.cpp, i8* null }]

declare void @_ZNSt8ios_base4InitC1Ev(%"class.std::ios_base::Init"* nonnull align 1 dereferenceable(1)) unnamed_addr #0

; Function Attrs: nounwind
declare void @_ZNSt8ios_base4InitD1Ev(%"class.std::ios_base::Init"* nonnull align 1 dereferenceable(1)) unnamed_addr #1

; Function Attrs: nofree nounwind
declare i32 @__cxa_atexit(void (i8*)*, i8*, i8*) local_unnamed_addr #2

; Function Attrs: mustprogress norecurse sspstrong uwtable
define dso_local i32 @main() local_unnamed_addr #3 {
  %1 = alloca i32, align 4
  %2 = alloca [101 x i32], align 16
  %3 = bitcast i32* %1 to i8*
  call void @llvm.lifetime.start.p0i8(i64 4, i8* nonnull %3) #6
  %4 = bitcast [101 x i32]* %2 to i8*
  call void @llvm.lifetime.start.p0i8(i64 404, i8* nonnull %4) #6
  %5 = call nonnull align 8 dereferenceable(16) %"class.std::basic_istream"* @_ZNSirsERi(%"class.std::basic_istream"* nonnull align 8 dereferenceable(16) @_ZSt3cin, i32* nonnull align 4 dereferenceable(4) %1)
  %6 = load i32, i32* %1, align 4, !tbaa !5
  %7 = icmp slt i32 %6, 1
  br i1 %7, label %16, label %8

8:                                                ; preds = %0, %8
  %9 = phi i64 [ %12, %8 ], [ 1, %0 ]
  %10 = getelementptr inbounds [101 x i32], [101 x i32]* %2, i64 0, i64 %9
  %11 = call nonnull align 8 dereferenceable(16) %"class.std::basic_istream"* @_ZNSirsERi(%"class.std::basic_istream"* nonnull align 8 dereferenceable(16) @_ZSt3cin, i32* nonnull align 4 dereferenceable(4) %10)
  %12 = add nuw nsw i64 %9, 1
  %13 = load i32, i32* %1, align 4, !tbaa !5
  %14 = sext i32 %13 to i64
  %15 = icmp slt i64 %9, %14
  br i1 %15, label %8, label %16, !llvm.loop !9

16:                                               ; preds = %8, %0
  %17 = phi i32 [ %6, %0 ], [ %13, %8 ]
  %18 = and i32 %17, 1
  %19 = icmp eq i32 %18, 0
  %20 = add nsw i32 %17, 1
  br i1 %19, label %21, label %51

21:                                               ; preds = %16
  %22 = icmp slt i32 %17, 2
  br i1 %22, label %116, label %23

23:                                               ; preds = %21
  %24 = lshr i32 %17, 1
  %25 = zext i32 %24 to i64
  %26 = and i64 %25, 1
  %27 = icmp eq i32 %24, 1
  br i1 %27, label %82, label %28

28:                                               ; preds = %23
  %29 = and i64 %25, 2147483646
  br label %30

30:                                               ; preds = %30, %28
  %31 = phi i64 [ 1, %28 ], [ %48, %30 ]
  %32 = phi i64 [ %29, %28 ], [ %49, %30 ]
  %33 = trunc i64 %31 to i32
  %34 = sub i32 %20, %33
  %35 = sext i32 %34 to i64
  %36 = getelementptr inbounds [101 x i32], [101 x i32]* %2, i64 0, i64 %35
  %37 = load i32, i32* %36, align 4, !tbaa !5
  %38 = getelementptr inbounds [101 x i32], [101 x i32]* %2, i64 0, i64 %31
  %39 = load i32, i32* %38, align 4, !tbaa !5
  store i32 %39, i32* %36, align 4, !tbaa !5
  store i32 %37, i32* %38, align 4, !tbaa !5
  %40 = add nuw nsw i64 %31, 1
  %41 = trunc i64 %40 to i32
  %42 = sub i32 %20, %41
  %43 = sext i32 %42 to i64
  %44 = getelementptr inbounds [101 x i32], [101 x i32]* %2, i64 0, i64 %43
  %45 = load i32, i32* %44, align 4, !tbaa !5
  %46 = getelementptr inbounds [101 x i32], [101 x i32]* %2, i64 0, i64 %40
  %47 = load i32, i32* %46, align 4, !tbaa !5
  store i32 %47, i32* %44, align 4, !tbaa !5
  store i32 %45, i32* %46, align 4, !tbaa !5
  %48 = add nuw nsw i64 %31, 2
  %49 = add i64 %32, -2
  %50 = icmp eq i64 %49, 0
  br i1 %50, label %82, label %30, !llvm.loop !11

51:                                               ; preds = %16
  %52 = icmp slt i32 %17, 3
  br i1 %52, label %104, label %53

53:                                               ; preds = %51
  %54 = add nsw i32 %17, -1
  %55 = lshr i32 %54, 1
  %56 = zext i32 %55 to i64
  %57 = and i64 %56, 1
  %58 = icmp eq i32 %55, 1
  br i1 %58, label %93, label %59

59:                                               ; preds = %53
  %60 = and i64 %56, 2147483646
  br label %61

61:                                               ; preds = %61, %59
  %62 = phi i64 [ 1, %59 ], [ %79, %61 ]
  %63 = phi i64 [ %60, %59 ], [ %80, %61 ]
  %64 = trunc i64 %62 to i32
  %65 = sub i32 %20, %64
  %66 = sext i32 %65 to i64
  %67 = getelementptr inbounds [101 x i32], [101 x i32]* %2, i64 0, i64 %66
  %68 = load i32, i32* %67, align 4, !tbaa !5
  %69 = getelementptr inbounds [101 x i32], [101 x i32]* %2, i64 0, i64 %62
  %70 = load i32, i32* %69, align 4, !tbaa !5
  store i32 %70, i32* %67, align 4, !tbaa !5
  store i32 %68, i32* %69, align 4, !tbaa !5
  %71 = add nuw nsw i64 %62, 1
  %72 = trunc i64 %71 to i32
  %73 = sub i32 %20, %72
  %74 = sext i32 %73 to i64
  %75 = getelementptr inbounds [101 x i32], [101 x i32]* %2, i64 0, i64 %74
  %76 = load i32, i32* %75, align 4, !tbaa !5
  %77 = getelementptr inbounds [101 x i32], [101 x i32]* %2, i64 0, i64 %71
  %78 = load i32, i32* %77, align 4, !tbaa !5
  store i32 %78, i32* %75, align 4, !tbaa !5
  store i32 %76, i32* %77, align 4, !tbaa !5
  %79 = add nuw nsw i64 %62, 2
  %80 = add i64 %63, -2
  %81 = icmp eq i64 %80, 0
  br i1 %81, label %93, label %61, !llvm.loop !12

82:                                               ; preds = %30, %23
  %83 = phi i64 [ 1, %23 ], [ %48, %30 ]
  %84 = icmp eq i64 %26, 0
  br i1 %84, label %104, label %85

85:                                               ; preds = %82
  %86 = trunc i64 %83 to i32
  %87 = sub i32 %20, %86
  %88 = sext i32 %87 to i64
  %89 = getelementptr inbounds [101 x i32], [101 x i32]* %2, i64 0, i64 %88
  %90 = load i32, i32* %89, align 4, !tbaa !5
  %91 = getelementptr inbounds [101 x i32], [101 x i32]* %2, i64 0, i64 %83
  %92 = load i32, i32* %91, align 4, !tbaa !5
  store i32 %92, i32* %89, align 4, !tbaa !5
  store i32 %90, i32* %91, align 4, !tbaa !5
  br label %104

93:                                               ; preds = %61, %53
  %94 = phi i64 [ 1, %53 ], [ %79, %61 ]
  %95 = icmp eq i64 %57, 0
  br i1 %95, label %104, label %96

96:                                               ; preds = %93
  %97 = trunc i64 %94 to i32
  %98 = sub i32 %20, %97
  %99 = sext i32 %98 to i64
  %100 = getelementptr inbounds [101 x i32], [101 x i32]* %2, i64 0, i64 %99
  %101 = load i32, i32* %100, align 4, !tbaa !5
  %102 = getelementptr inbounds [101 x i32], [101 x i32]* %2, i64 0, i64 %94
  %103 = load i32, i32* %102, align 4, !tbaa !5
  store i32 %103, i32* %100, align 4, !tbaa !5
  store i32 %101, i32* %102, align 4, !tbaa !5
  br label %104

104:                                              ; preds = %96, %93, %85, %82, %51
  %105 = icmp sgt i32 %17, 1
  br i1 %105, label %106, label %116

106:                                              ; preds = %104, %106
  %107 = phi i64 [ %112, %106 ], [ 1, %104 ]
  %108 = getelementptr inbounds [101 x i32], [101 x i32]* %2, i64 0, i64 %107
  %109 = load i32, i32* %108, align 4, !tbaa !5
  %110 = call nonnull align 8 dereferenceable(8) %"class.std::basic_ostream"* @_ZNSolsEi(%"class.std::basic_ostream"* nonnull align 8 dereferenceable(8) @_ZSt4cout, i32 %109)
  %111 = call nonnull align 8 dereferenceable(8) %"class.std::basic_ostream"* @_ZSt16__ostream_insertIcSt11char_traitsIcEERSt13basic_ostreamIT_T0_ES6_PKS3_l(%"class.std::basic_ostream"* nonnull align 8 dereferenceable(8) %110, i8* nonnull getelementptr inbounds ([2 x i8], [2 x i8]* @.str, i64 0, i64 0), i64 1)
  %112 = add nuw nsw i64 %107, 1
  %113 = load i32, i32* %1, align 4, !tbaa !5
  %114 = sext i32 %113 to i64
  %115 = icmp slt i64 %112, %114
  br i1 %115, label %106, label %116, !llvm.loop !13

116:                                              ; preds = %106, %104, %21
  %117 = phi i32 [ %17, %21 ], [ %17, %104 ], [ %113, %106 ]
  %118 = sext i32 %117 to i64
  %119 = getelementptr inbounds [101 x i32], [101 x i32]* %2, i64 0, i64 %118
  %120 = load i32, i32* %119, align 4, !tbaa !5
  %121 = call nonnull align 8 dereferenceable(8) %"class.std::basic_ostream"* @_ZNSolsEi(%"class.std::basic_ostream"* nonnull align 8 dereferenceable(8) @_ZSt4cout, i32 %120)
  call void @llvm.lifetime.end.p0i8(i64 404, i8* nonnull %4) #6
  call void @llvm.lifetime.end.p0i8(i64 4, i8* nonnull %3) #6
  ret i32 0
}

; Function Attrs: argmemonly mustprogress nofree nosync nounwind willreturn
declare void @llvm.lifetime.start.p0i8(i64 immarg, i8* nocapture) #4

declare nonnull align 8 dereferenceable(16) %"class.std::basic_istream"* @_ZNSirsERi(%"class.std::basic_istream"* nonnull align 8 dereferenceable(16), i32* nonnull align 4 dereferenceable(4)) local_unnamed_addr #0

declare nonnull align 8 dereferenceable(8) %"class.std::basic_ostream"* @_ZNSolsEi(%"class.std::basic_ostream"* nonnull align 8 dereferenceable(8), i32) local_unnamed_addr #0

; Function Attrs: argmemonly mustprogress nofree nosync nounwind willreturn
declare void @llvm.lifetime.end.p0i8(i64 immarg, i8* nocapture) #4

declare nonnull align 8 dereferenceable(8) %"class.std::basic_ostream"* @_ZSt16__ostream_insertIcSt11char_traitsIcEERSt13basic_ostreamIT_T0_ES6_PKS3_l(%"class.std::basic_ostream"* nonnull align 8 dereferenceable(8), i8*, i64) local_unnamed_addr #0

; Function Attrs: sspstrong uwtable
define internal void @_GLOBAL__sub_I_1118.cpp() #5 section ".text.startup" {
  tail call void @_ZNSt8ios_base4InitC1Ev(%"class.std::ios_base::Init"* nonnull align 1 dereferenceable(1) @_ZStL8__ioinit)
  %1 = tail call i32 @__cxa_atexit(void (i8*)* bitcast (void (%"class.std::ios_base::Init"*)* @_ZNSt8ios_base4InitD1Ev to void (i8*)*), i8* getelementptr inbounds (%"class.std::ios_base::Init", %"class.std::ios_base::Init"* @_ZStL8__ioinit, i64 0, i32 0), i8* nonnull @__dso_handle) #6
  ret void
}


!llvm.module.flags = !{!0, !1, !2, !3}
!llvm.ident = !{!4}

!0 = !{i32 1, !"wchar_size", i32 4}
!1 = !{i32 7, !"PIC Level", i32 2}
!2 = !{i32 7, !"PIE Level", i32 2}
!3 = !{i32 7, !"uwtable", i32 1}
!4 = !{!"clang version 13.0.0"}
!5 = !{!6, !6, i64 0}
!6 = !{!"int", !7, i64 0}
!7 = !{!"omnipotent char", !8, i64 0}
!8 = !{!"Simple C++ TBAA"}
!9 = distinct !{!9, !10}
!10 = !{!"llvm.loop.mustprogress"}
!11 = distinct !{!11, !10}
!12 = distinct !{!12, !10}
!13 = distinct !{!13, !10}
